target datalayout = "e-m:e-p270:32:32-p271:32:32-p272:64:64-i64:64-i128:128-f80:128-n8:16:32:64-S128"
target triple = "x86_64-unknown-linux-gnu"

%"class.QuantLib::AbcdMathFunction" = type { double, double, double, double, %"class.std::vector", %"class.std::vector", double, double, double, double, double, double, double }
%"class.std::vector" = type { %"struct.std::_Vector_base" }
%"struct.std::_Vector_base" = type { %"struct.std::_Vector_base<double, std::allocator<double>>::_Vector_impl" }
%"struct.std::_Vector_base<double, std::allocator<double>>::_Vector_impl" = type { %"struct.std::_Vector_base<double, std::allocator<double>>::_Vector_impl_data" }
%"struct.std::_Vector_base<double, std::allocator<double>>::_Vector_impl_data" = type { ptr, ptr, ptr }

; Function Attrs: inlinehint mustprogress nounwind uwtable
define linkonce_odr noundef zeroext i1 @_ZN8QuantLib5closeEdd(double noundef %x, double noundef %y) #5 comdat {
entry:
  %retval = alloca i1, align 1
  %x.addr = alloca double, align 8
  %y.addr = alloca double, align 8
  %diff = alloca double, align 8
  %tolerance = alloca double, align 8
  %cleanup.dest.slot = alloca i32, align 4
  store double %x, ptr %x.addr, align 8, !tbaa !7
  store double %y, ptr %y.addr, align 8, !tbaa !7
  %0 = load double, ptr %x.addr, align 8, !tbaa !7
  %1 = load double, ptr %y.addr, align 8, !tbaa !7
  %cmp = fcmp oeq double %0, %1
  br i1 %cmp, label %if.then, label %if.end

if.then:                                          ; preds = %entry
  store i1 true, ptr %retval, align 1
  br label %return

if.end:                                           ; preds = %entry
  call void @llvm.lifetime.start.p0(i64 8, ptr %diff) #16
  %2 = load double, ptr %x.addr, align 8, !tbaa !7
  %3 = load double, ptr %y.addr, align 8, !tbaa !7
  %sub = fsub double %2, %3
  %4 = call double @llvm.fabs.f64(double %sub)
  store double %4, ptr %diff, align 8, !tbaa !7
  call void @llvm.lifetime.start.p0(i64 8, ptr %tolerance) #16
  store double 0x3D05000000000000, ptr %tolerance, align 8, !tbaa !7
  %5 = load double, ptr %x.addr, align 8, !tbaa !7
  %cmp1 = fcmp oeq double %5, 0.000000e+00
  br i1 %cmp1, label %if.then3, label %lor.lhs.false

lor.lhs.false:                                    ; preds = %if.end
  %6 = load double, ptr %y.addr, align 8, !tbaa !7
  %cmp2 = fcmp oeq double %6, 0.000000e+00
  br i1 %cmp2, label %if.then3, label %if.end5

if.then3:                                         ; preds = %lor.lhs.false, %if.end
  %7 = load double, ptr %diff, align 8, !tbaa !7
  %cmp4 = fcmp olt double %7, 0x3A1B900000000000
  store i1 %cmp4, ptr %retval, align 1
  store i32 1, ptr %cleanup.dest.slot, align 4
  br label %cleanup

if.end5:                                          ; preds = %lor.lhs.false
  %8 = load double, ptr %diff, align 8, !tbaa !7
  %9 = load double, ptr %x.addr, align 8, !tbaa !7
  %10 = call double @llvm.fabs.f64(double %9)
  %mul = fmul double 0x3D05000000000000, %10
  %cmp6 = fcmp ole double %8, %mul
  br i1 %cmp6, label %land.rhs, label %land.end

land.rhs:                                         ; preds = %if.end5
  %11 = load double, ptr %diff, align 8, !tbaa !7
  %12 = load double, ptr %y.addr, align 8, !tbaa !7
  %13 = call double @llvm.fabs.f64(double %12)
  %mul7 = fmul double 0x3D05000000000000, %13
  %cmp8 = fcmp ole double %11, %mul7
  br label %land.end

land.end:                                         ; preds = %land.rhs, %if.end5
  %14 = phi i1 [ false, %if.end5 ], [ %cmp8, %land.rhs ]
  store i1 %14, ptr %retval, align 1
  store i32 1, ptr %cleanup.dest.slot, align 4
  br label %cleanup

cleanup:                                          ; preds = %land.end, %if.then3
  call void @llvm.lifetime.end.p0(i64 8, ptr %tolerance) #16
  call void @llvm.lifetime.end.p0(i64 8, ptr %diff) #16
  br label %return

return:                                           ; preds = %cleanup, %if.then
  %15 = load i1, ptr %retval, align 1
  ret i1 %15
}

; Function Attrs: mustprogress uwtable
define noundef double @_ZNK8QuantLib12AbcdFunction9primitiveEddd(ptr noundef nonnull align 8 dereferenceable(136) %this, double noundef %t, double noundef %T, double noundef %S) #0 align 2 {
entry:
  %retval = alloca double, align 8
  %this.addr = alloca ptr, align 8
  %t.addr = alloca double, align 8
  %T.addr = alloca double, align 8
  %S.addr = alloca double, align 8
  %v = alloca double, align 8
  %k1 = alloca double, align 8
  %k2 = alloca double, align 8
  %k3 = alloca double, align 8
  store ptr %this, ptr %this.addr, align 8, !tbaa !3
  store double %t, ptr %t.addr, align 8, !tbaa !7
  store double %T, ptr %T.addr, align 8, !tbaa !7
  store double %S, ptr %S.addr, align 8, !tbaa !7
  %this1 = load ptr, ptr %this.addr, align 8
  %0 = load double, ptr %T.addr, align 8, !tbaa !7
  %1 = load double, ptr %t.addr, align 8, !tbaa !7
  %cmp = fcmp olt double %0, %1
  br i1 %cmp, label %if.then, label %lor.lhs.false

lor.lhs.false:                                    ; preds = %entry
  %2 = load double, ptr %S.addr, align 8, !tbaa !7
  %3 = load double, ptr %t.addr, align 8, !tbaa !7
  %cmp2 = fcmp olt double %2, %3
  br i1 %cmp2, label %if.then, label %if.end

if.then:                                          ; preds = %lor.lhs.false, %entry
  store double 0.000000e+00, ptr %retval, align 8
  br label %return

if.end:                                           ; preds = %lor.lhs.false
  %c_ = getelementptr inbounds nuw %"class.QuantLib::AbcdMathFunction", ptr %this1, i32 0, i32 2
  %4 = load double, ptr %c_, align 8, !tbaa !20
  %call = call noundef zeroext i1 @_ZN8QuantLib5closeEdd(double noundef %4, double noundef 0.000000e+00)
  br i1 %call, label %if.then3, label %if.end31

if.then3:                                         ; preds = %if.end
  call void @llvm.lifetime.start.p0(i64 8, ptr %v) #16
  %a_ = getelementptr inbounds nuw %"class.QuantLib::AbcdMathFunction", ptr %this1, i32 0, i32 0
  %5 = load double, ptr %a_, align 8, !tbaa !13
  %d_ = getelementptr inbounds nuw %"class.QuantLib::AbcdMathFunction", ptr %this1, i32 0, i32 3
  %6 = load double, ptr %d_, align 8, !tbaa !21
  %add = fadd double %5, %6
  store double %add, ptr %v, align 8, !tbaa !7
  %7 = load double, ptr %t.addr, align 8, !tbaa !7
  %8 = load double, ptr %v, align 8, !tbaa !7
  %9 = load double, ptr %v, align 8, !tbaa !7
  %10 = load double, ptr %v, align 8, !tbaa !7
  %b_ = getelementptr inbounds nuw %"class.QuantLib::AbcdMathFunction", ptr %this1, i32 0, i32 1
  %11 = load double, ptr %b_, align 8, !tbaa !19
  %mul4 = fmul double %10, %11
  %12 = load double, ptr %S.addr, align 8, !tbaa !7
  %mul5 = fmul double %mul4, %12
  %13 = call double @llvm.fmuladd.f64(double %8, double %9, double %mul5)
  %14 = load double, ptr %v, align 8, !tbaa !7
  %b_6 = getelementptr inbounds nuw %"class.QuantLib::AbcdMathFunction", ptr %this1, i32 0, i32 1
  %15 = load double, ptr %b_6, align 8, !tbaa !19
  %mul = fmul double %14, %15
  %16 = load double, ptr %T.addr, align 8, !tbaa !7
  %17 = call double @llvm.fmuladd.f64(double %mul, double %16, double %13)
  %18 = load double, ptr %v, align 8, !tbaa !7
  %b_8 = getelementptr inbounds nuw %"class.QuantLib::AbcdMathFunction", ptr %this1, i32 0, i32 1
  %19 = load double, ptr %b_8, align 8, !tbaa !19
  %mul9 = fmul double %18, %19
  %20 = load double, ptr %t.addr, align 8, !tbaa !7
  %neg = fneg double %mul9
  %21 = call double @llvm.fmuladd.f64(double %neg, double %20, double %17)
  %b_11 = getelementptr inbounds nuw %"class.QuantLib::AbcdMathFunction", ptr %this1, i32 0, i32 1
  %22 = load double, ptr %b_11, align 8, !tbaa !19
  %b_12 = getelementptr inbounds nuw %"class.QuantLib::AbcdMathFunction", ptr %this1, i32 0, i32 1
  %23 = load double, ptr %b_12, align 8, !tbaa !19
  %mul13 = fmul double %22, %23
  %24 = load double, ptr %S.addr, align 8, !tbaa !7
  %mul14 = fmul double %mul13, %24
  %25 = load double, ptr %T.addr, align 8, !tbaa !7
  %26 = call double @llvm.fmuladd.f64(double %mul14, double %25, double %21)
  %b_16 = getelementptr inbounds nuw %"class.QuantLib::AbcdMathFunction", ptr %this1, i32 0, i32 1
  %27 = load double, ptr %b_16, align 8, !tbaa !19
  %mul17 = fmul double 5.000000e-01, %27
  %b_18 = getelementptr inbounds nuw %"class.QuantLib::AbcdMathFunction", ptr %this1, i32 0, i32 1
  %28 = load double, ptr %b_18, align 8, !tbaa !19
  %mul19 = fmul double %mul17, %28
  %29 = load double, ptr %t.addr, align 8, !tbaa !7
  %mul20 = fmul double %mul19, %29
  %30 = load double, ptr %S.addr, align 8, !tbaa !7
  %31 = load double, ptr %T.addr, align 8, !tbaa !7
  %add21 = fadd double %30, %31
  %neg23 = fneg double %mul20
  %32 = call double @llvm.fmuladd.f64(double %neg23, double %add21, double %26)
  %b_24 = getelementptr inbounds nuw %"class.QuantLib::AbcdMathFunction", ptr %this1, i32 0, i32 1
  %33 = load double, ptr %b_24, align 8, !tbaa !19
  %b_25 = getelementptr inbounds nuw %"class.QuantLib::AbcdMathFunction", ptr %this1, i32 0, i32 1
  %34 = load double, ptr %b_25, align 8, !tbaa !19
  %mul26 = fmul double %33, %34
  %35 = load double, ptr %t.addr, align 8, !tbaa !7
  %mul27 = fmul double %mul26, %35
  %36 = load double, ptr %t.addr, align 8, !tbaa !7
  %mul28 = fmul double %mul27, %36
  %div = fdiv double %mul28, 3.000000e+00
  %add29 = fadd double %32, %div
  %mul30 = fmul double %7, %add29
  store double %mul30, ptr %retval, align 8
  call void @llvm.lifetime.end.p0(i64 8, ptr %v) #16
  br label %return

if.end31:                                         ; preds = %if.end
  call void @llvm.lifetime.start.p0(i64 8, ptr %k1) #16
  %c_32 = getelementptr inbounds nuw %"class.QuantLib::AbcdMathFunction", ptr %this1, i32 0, i32 2
  %37 = load double, ptr %c_32, align 8, !tbaa !20
  %38 = load double, ptr %t.addr, align 8, !tbaa !7
  %mul33 = fmul double %37, %38
  %call34 = call double @exp(double noundef %mul33) #16, !tbaa !9
  store double %call34, ptr %k1, align 8, !tbaa !7
  call void @llvm.lifetime.start.p0(i64 8, ptr %k2) #16
  %c_35 = getelementptr inbounds nuw %"class.QuantLib::AbcdMathFunction", ptr %this1, i32 0, i32 2
  %39 = load double, ptr %c_35, align 8, !tbaa !20
  %40 = load double, ptr %S.addr, align 8, !tbaa !7
  %mul36 = fmul double %39, %40
  %call37 = call double @exp(double noundef %mul36) #16, !tbaa !9
  store double %call37, ptr %k2, align 8, !tbaa !7
  call void @llvm.lifetime.start.p0(i64 8, ptr %k3) #16
  %c_38 = getelementptr inbounds nuw %"class.QuantLib::AbcdMathFunction", ptr %this1, i32 0, i32 2
  %41 = load double, ptr %c_38, align 8, !tbaa !20
  %42 = load double, ptr %T.addr, align 8, !tbaa !7
  %mul39 = fmul double %41, %42
  %call40 = call double @exp(double noundef %mul39) #16, !tbaa !9
  store double %call40, ptr %k3, align 8, !tbaa !7
  %b_41 = getelementptr inbounds nuw %"class.QuantLib::AbcdMathFunction", ptr %this1, i32 0, i32 1
  %43 = load double, ptr %b_41, align 8, !tbaa !19
  %b_42 = getelementptr inbounds nuw %"class.QuantLib::AbcdMathFunction", ptr %this1, i32 0, i32 1
  %44 = load double, ptr %b_42, align 8, !tbaa !19
  %mul43 = fmul double %43, %44
  %c_44 = getelementptr inbounds nuw %"class.QuantLib::AbcdMathFunction", ptr %this1, i32 0, i32 2
  %45 = load double, ptr %c_44, align 8, !tbaa !20
  %mul45 = fmul double 2.000000e+00, %45
  %c_46 = getelementptr inbounds nuw %"class.QuantLib::AbcdMathFunction", ptr %this1, i32 0, i32 2
  %46 = load double, ptr %c_46, align 8, !tbaa !20
  %mul47 = fmul double %mul45, %46
  %47 = load double, ptr %S.addr, align 8, !tbaa !7
  %mul48 = fmul double %mul47, %47
  %48 = load double, ptr %T.addr, align 8, !tbaa !7
  %neg50 = fneg double %mul48
  %49 = call double @llvm.fmuladd.f64(double %neg50, double %48, double -1.000000e+00)
  %c_51 = getelementptr inbounds nuw %"class.QuantLib::AbcdMathFunction", ptr %this1, i32 0, i32 2
  %50 = load double, ptr %c_51, align 8, !tbaa !20
  %51 = load double, ptr %S.addr, align 8, !tbaa !7
  %52 = load double, ptr %T.addr, align 8, !tbaa !7
  %add52 = fadd double %51, %52
  %neg54 = fneg double %50
  %53 = call double @llvm.fmuladd.f64(double %neg54, double %add52, double %49)
  %54 = load double, ptr %k1, align 8, !tbaa !7
  %55 = load double, ptr %k1, align 8, !tbaa !7
  %mul55 = fmul double %54, %55
  %c_56 = getelementptr inbounds nuw %"class.QuantLib::AbcdMathFunction", ptr %this1, i32 0, i32 2
  %56 = load double, ptr %c_56, align 8, !tbaa !20
  %57 = load double, ptr %S.addr, align 8, !tbaa !7
  %58 = load double, ptr %T.addr, align 8, !tbaa !7
  %add57 = fadd double %57, %58
  %59 = load double, ptr %t.addr, align 8, !tbaa !7
  %60 = call double @llvm.fmuladd.f64(double -2.000000e+00, double %59, double %add57)
  %61 = call double @llvm.fmuladd.f64(double %56, double %60, double 1.000000e+00)
  %c_60 = getelementptr inbounds nuw %"class.QuantLib::AbcdMathFunction", ptr %this1, i32 0, i32 2
  %62 = load double, ptr %c_60, align 8, !tbaa !20
  %mul61 = fmul double 2.000000e+00, %62
  %c_62 = getelementptr inbounds nuw %"class.QuantLib::AbcdMathFunction", ptr %this1, i32 0, i32 2
  %63 = load double, ptr %c_62, align 8, !tbaa !20
  %mul63 = fmul double %mul61, %63
  %64 = load double, ptr %S.addr, align 8, !tbaa !7
  %65 = load double, ptr %t.addr, align 8, !tbaa !7
  %sub = fsub double %64, %65
  %mul64 = fmul double %mul63, %sub
  %66 = load double, ptr %T.addr, align 8, !tbaa !7
  %67 = load double, ptr %t.addr, align 8, !tbaa !7
  %sub65 = fsub double %66, %67
  %68 = call double @llvm.fmuladd.f64(double %mul64, double %sub65, double %61)
  %69 = call double @llvm.fmuladd.f64(double %mul55, double %68, double %53)
  %c_69 = getelementptr inbounds nuw %"class.QuantLib::AbcdMathFunction", ptr %this1, i32 0, i32 2
  %70 = load double, ptr %c_69, align 8, !tbaa !20
  %mul70 = fmul double 2.000000e+00, %70
  %c_71 = getelementptr inbounds nuw %"class.QuantLib::AbcdMathFunction", ptr %this1, i32 0, i32 2
  %71 = load double, ptr %c_71, align 8, !tbaa !20
  %mul72 = fmul double %mul70, %71
  %d_73 = getelementptr inbounds nuw %"class.QuantLib::AbcdMathFunction", ptr %this1, i32 0, i32 3
  %72 = load double, ptr %d_73, align 8, !tbaa !21
  %mul74 = fmul double 2.000000e+00, %72
  %a_75 = getelementptr inbounds nuw %"class.QuantLib::AbcdMathFunction", ptr %this1, i32 0, i32 0
  %73 = load double, ptr %a_75, align 8, !tbaa !13
  %mul76 = fmul double %mul74, %73
  %74 = load double, ptr %k2, align 8, !tbaa !7
  %75 = load double, ptr %k3, align 8, !tbaa !7
  %add77 = fadd double %74, %75
  %mul78 = fmul double %mul76, %add77
  %76 = load double, ptr %k1, align 8, !tbaa !7
  %sub79 = fsub double %76, 1.000000e+00
  %a_81 = getelementptr inbounds nuw %"class.QuantLib::AbcdMathFunction", ptr %this1, i32 0, i32 0
  %77 = load double, ptr %a_81, align 8, !tbaa !13
  %a_82 = getelementptr inbounds nuw %"class.QuantLib::AbcdMathFunction", ptr %this1, i32 0, i32 0
  %78 = load double, ptr %a_82, align 8, !tbaa !13
  %mul83 = fmul double %77, %78
  %79 = load double, ptr %k1, align 8, !tbaa !7
  %80 = load double, ptr %k1, align 8, !tbaa !7
  %81 = call double @llvm.fmuladd.f64(double %79, double %80, double -1.000000e+00)
  %mul85 = fmul double %mul83, %81
  %82 = call double @llvm.fmuladd.f64(double %mul78, double %sub79, double %mul85)
  %c_86 = getelementptr inbounds nuw %"class.QuantLib::AbcdMathFunction", ptr %this1, i32 0, i32 2
  %83 = load double, ptr %c_86, align 8, !tbaa !20
  %mul87 = fmul double 2.000000e+00, %83
  %d_88 = getelementptr inbounds nuw %"class.QuantLib::AbcdMathFunction", ptr %this1, i32 0, i32 3
  %84 = load double, ptr %d_88, align 8, !tbaa !21
  %mul89 = fmul double %mul87, %84
  %d_90 = getelementptr inbounds nuw %"class.QuantLib::AbcdMathFunction", ptr %this1, i32 0, i32 3
  %85 = load double, ptr %d_90, align 8, !tbaa !21
  %mul91 = fmul double %mul89, %85
  %86 = load double, ptr %k2, align 8, !tbaa !7
  %mul92 = fmul double %mul91, %86
  %87 = load double, ptr %k3, align 8, !tbaa !7
  %mul93 = fmul double %mul92, %87
  %88 = load double, ptr %t.addr, align 8, !tbaa !7
  %89 = call double @llvm.fmuladd.f64(double %mul93, double %88, double %82)
  %mul95 = fmul double %mul72, %89
  %90 = call double @llvm.fmuladd.f64(double %mul43, double %69, double %mul95)
  %b_96 = getelementptr inbounds nuw %"class.QuantLib::AbcdMathFunction", ptr %this1, i32 0, i32 1
  %91 = load double, ptr %b_96, align 8, !tbaa !19
  %mul97 = fmul double 2.000000e+00, %91
  %c_98 = getelementptr inbounds nuw %"class.QuantLib::AbcdMathFunction", ptr %this1, i32 0, i32 2
  %92 = load double, ptr %c_98, align 8, !tbaa !20
  %mul99 = fmul double %mul97, %92
  %a_100 = getelementptr inbounds nuw %"class.QuantLib::AbcdMathFunction", ptr %this1, i32 0, i32 0
  %93 = load double, ptr %a_100, align 8, !tbaa !13
  %c_101 = getelementptr inbounds nuw %"class.QuantLib::AbcdMathFunction", ptr %this1, i32 0, i32 2
  %94 = load double, ptr %c_101, align 8, !tbaa !20
  %95 = load double, ptr %S.addr, align 8, !tbaa !7
  %96 = load double, ptr %T.addr, align 8, !tbaa !7
  %add102 = fadd double %95, %96
  %neg104 = fneg double %94
  %97 = call double @llvm.fmuladd.f64(double %neg104, double %add102, double -1.000000e+00)
  %98 = load double, ptr %k1, align 8, !tbaa !7
  %99 = load double, ptr %k1, align 8, !tbaa !7
  %mul105 = fmul double %98, %99
  %c_106 = getelementptr inbounds nuw %"class.QuantLib::AbcdMathFunction", ptr %this1, i32 0, i32 2
  %100 = load double, ptr %c_106, align 8, !tbaa !20
  %101 = load double, ptr %S.addr, align 8, !tbaa !7
  %102 = load double, ptr %T.addr, align 8, !tbaa !7
  %add107 = fadd double %101, %102
  %103 = load double, ptr %t.addr, align 8, !tbaa !7
  %104 = call double @llvm.fmuladd.f64(double -2.000000e+00, double %103, double %add107)
  %105 = call double @llvm.fmuladd.f64(double %100, double %104, double 1.000000e+00)
  %106 = call double @llvm.fmuladd.f64(double %mul105, double %105, double %97)
  %d_112 = getelementptr inbounds nuw %"class.QuantLib::AbcdMathFunction", ptr %this1, i32 0, i32 3
  %107 = load double, ptr %d_112, align 8, !tbaa !21
  %mul113 = fmul double 2.000000e+00, %107
  %108 = load double, ptr %k3, align 8, !tbaa !7
  %c_114 = getelementptr inbounds nuw %"class.QuantLib::AbcdMathFunction", ptr %this1, i32 0, i32 2
  %109 = load double, ptr %c_114, align 8, !tbaa !20
  %110 = load double, ptr %S.addr, align 8, !tbaa !7
  %111 = call double @llvm.fmuladd.f64(double %109, double %110, double 1.000000e+00)
  %112 = load double, ptr %k2, align 8, !tbaa !7
  %c_117 = getelementptr inbounds nuw %"class.QuantLib::AbcdMathFunction", ptr %this1, i32 0, i32 2
  %113 = load double, ptr %c_117, align 8, !tbaa !20
  %114 = load double, ptr %T.addr, align 8, !tbaa !7
  %115 = call double @llvm.fmuladd.f64(double %113, double %114, double 1.000000e+00)
  %mul119 = fmul double %112, %115
  %116 = call double @llvm.fmuladd.f64(double %108, double %111, double %mul119)
  %117 = load double, ptr %k1, align 8, !tbaa !7
  %118 = load double, ptr %k3, align 8, !tbaa !7
  %mul120 = fmul double %117, %118
  %c_121 = getelementptr inbounds nuw %"class.QuantLib::AbcdMathFunction", ptr %this1, i32 0, i32 2
  %119 = load double, ptr %c_121, align 8, !tbaa !20
  %120 = load double, ptr %S.addr, align 8, !tbaa !7
  %121 = load double, ptr %t.addr, align 8, !tbaa !7
  %sub122 = fsub double %120, %121
  %122 = call double @llvm.fmuladd.f64(double %119, double %sub122, double 1.000000e+00)
  %neg125 = fneg double %mul120
  %123 = call double @llvm.fmuladd.f64(double %neg125, double %122, double %116)
  %124 = load double, ptr %k1, align 8, !tbaa !7
  %125 = load double, ptr %k2, align 8, !tbaa !7
  %mul126 = fmul double %124, %125
  %c_127 = getelementptr inbounds nuw %"class.QuantLib::AbcdMathFunction", ptr %this1, i32 0, i32 2
  %126 = load double, ptr %c_127, align 8, !tbaa !20
  %127 = load double, ptr %T.addr, align 8, !tbaa !7
  %128 = load double, ptr %t.addr, align 8, !tbaa !7
  %sub128 = fsub double %127, %128
  %129 = call double @llvm.fmuladd.f64(double %126, double %sub128, double 1.000000e+00)
  %neg131 = fneg double %mul126
  %130 = call double @llvm.fmuladd.f64(double %neg131, double %129, double %123)
  %mul132 = fmul double %mul113, %130
  %neg133 = fneg double %mul132
  %131 = call double @llvm.fmuladd.f64(double %93, double %106, double %neg133)
  %132 = call double @llvm.fmuladd.f64(double %mul99, double %131, double %90)
  %c_135 = getelementptr inbounds nuw %"class.QuantLib::AbcdMathFunction", ptr %this1, i32 0, i32 2
  %133 = load double, ptr %c_135, align 8, !tbaa !20
  %mul136 = fmul double 4.000000e+00, %133
  %c_137 = getelementptr inbounds nuw %"class.QuantLib::AbcdMathFunction", ptr %this1, i32 0, i32 2
  %134 = load double, ptr %c_137, align 8, !tbaa !20
  %mul138 = fmul double %mul136, %134
  %c_139 = getelementptr inbounds nuw %"class.QuantLib::AbcdMathFunction", ptr %this1, i32 0, i32 2
  %135 = load double, ptr %c_139, align 8, !tbaa !20
  %mul140 = fmul double %mul138, %135
  %136 = load double, ptr %k2, align 8, !tbaa !7
  %mul141 = fmul double %mul140, %136
  %137 = load double, ptr %k3, align 8, !tbaa !7
  %mul142 = fmul double %mul141, %137
  %div143 = fdiv double %132, %mul142
  store double %div143, ptr %retval, align 8
  call void @llvm.lifetime.end.p0(i64 8, ptr %k3) #16
  call void @llvm.lifetime.end.p0(i64 8, ptr %k2) #16
  call void @llvm.lifetime.end.p0(i64 8, ptr %k1) #16
  br label %return

return:                                           ; preds = %if.end31, %if.then3, %if.then
  %138 = load double, ptr %retval, align 8
  ret double %138
}