; Function Attrs: mustprogress nofree nounwind willreturn memory(write, argmem: readwrite) uwtable
define noundef double @_ZNK8QuantLib12AbcdFunction9primitiveEddd(ptr nocapture noundef nonnull readonly align 8 dereferenceable(136) %this, double noundef %t, double noundef %T, double noundef %S) local_unnamed_addr #2 align 2 {
entry:
  %cmp = fcmp olt double %T, %t
  %cmp2 = fcmp olt double %S, %t
  %or.cond = or i1 %cmp, %cmp2
  br i1 %or.cond, label %return, label %if.end

if.end:                                           ; preds = %entry
  %c_ = getelementptr inbounds nuw i8, ptr %this, i64 16
  %0 = load double, ptr %c_, align 8, !tbaa !14
  %cmp.i = fcmp oeq double %0, 0.000000e+00
  %1 = tail call double @llvm.fabs.f64(double %0)
  %cmp4.i = fcmp olt double %1, 0x3A1B900000000000
  %or.cond60 = or i1 %cmp.i, %cmp4.i
  br i1 %or.cond60, label %if.then3, label %if.end31

if.then3:                                         ; preds = %if.end
  %2 = load double, ptr %this, align 8, !tbaa !3
  %d_ = getelementptr inbounds nuw i8, ptr %this, i64 24
  %3 = load double, ptr %d_, align 8, !tbaa !17
  %add = fadd double %2, %3
  %b_ = getelementptr inbounds nuw i8, ptr %this, i64 8
  %4 = load double, ptr %b_, align 8, !tbaa !13
  %mul4 = fmul double %add, %4
  %mul5 = fmul double %S, %mul4
  %5 = tail call double @llvm.fmuladd.f64(double %add, double %add, double %mul5)
  %6 = tail call double @llvm.fmuladd.f64(double %mul4, double %T, double %5)
  %neg = fneg double %mul4
  %7 = tail call double @llvm.fmuladd.f64(double %neg, double %t, double %6)
  %mul13 = fmul double %4, %4
  %mul14 = fmul double %S, %mul13
  %8 = tail call double @llvm.fmuladd.f64(double %mul14, double %T, double %7)
  %mul17 = fmul double %4, 5.000000e-01
  %mul19 = fmul double %4, %mul17
  %add21 = fadd double %T, %S
  %9 = fneg double %t
  %neg23 = fmul double %mul19, %9
  %10 = tail call double @llvm.fmuladd.f64(double %neg23, double %add21, double %8)
  %mul27 = fmul double %t, %mul13
  %mul28 = fmul double %t, %mul27
  %div = fdiv double %mul28, 3.000000e+00
  %add29 = fadd double %div, %10
  %mul30 = fmul double %t, %add29
  br label %return

if.end31:                                         ; preds = %if.end
  %mul33 = fmul double %t, %0
  %call34 = tail call double @exp(double noundef %mul33) #19, !tbaa !15
  %mul36 = fmul double %S, %0
  %call37 = tail call double @exp(double noundef %mul36) #19, !tbaa !15
  %mul39 = fmul double %T, %0
  %call40 = tail call double @exp(double noundef %mul39) #19, !tbaa !15
  %b_41 = getelementptr inbounds nuw i8, ptr %this, i64 8
  %11 = load double, ptr %b_41, align 8, !tbaa !13
  %mul43 = fmul double %11, %11
  %mul45 = fmul double %0, 2.000000e+00
  %mul47 = fmul double %0, %mul45
  %12 = fneg double %S
  %neg50 = fmul double %mul47, %12
  %13 = tail call double @llvm.fmuladd.f64(double %neg50, double %T, double -1.000000e+00)
  %add52 = fadd double %T, %S
  %neg54 = fneg double %0
  %14 = tail call double @llvm.fmuladd.f64(double %neg54, double %add52, double %13)
  %mul55 = fmul double %call34, %call34
  %15 = tail call double @llvm.fmuladd.f64(double %t, double -2.000000e+00, double %add52)
  %16 = tail call double @llvm.fmuladd.f64(double %0, double %15, double 1.000000e+00)
  %sub = fsub double %S, %t
  %mul64 = fmul double %sub, %mul47
  %sub65 = fsub double %T, %t
  %17 = tail call double @llvm.fmuladd.f64(double %mul64, double %sub65, double %16)
  %18 = tail call double @llvm.fmuladd.f64(double %mul55, double %17, double %14)
  %d_73 = getelementptr inbounds nuw i8, ptr %this, i64 24
  %19 = load double, ptr %d_73, align 8, !tbaa !17
  %mul74 = fmul double %19, 2.000000e+00
  %20 = load double, ptr %this, align 8, !tbaa !3
  %mul76 = fmul double %mul74, %20
  %add77 = fadd double %call37, %call40
  %mul78 = fmul double %add77, %mul76
  %sub79 = fadd double %call34, -1.000000e+00
  %mul83 = fmul double %20, %20
  %21 = tail call double @llvm.fmuladd.f64(double %call34, double %call34, double -1.000000e+00)
  %mul85 = fmul double %21, %mul83
  %22 = tail call double @llvm.fmuladd.f64(double %mul78, double %sub79, double %mul85)
  %mul89 = fmul double %mul45, %19
  %mul91 = fmul double %19, %mul89
  %mul92 = fmul double %call37, %mul91
  %mul93 = fmul double %call40, %mul92
  %23 = tail call double @llvm.fmuladd.f64(double %mul93, double %t, double %22)
  %mul95 = fmul double %mul47, %23
  %24 = tail call double @llvm.fmuladd.f64(double %mul43, double %18, double %mul95)
  %mul97 = fmul double %11, 2.000000e+00
  %mul99 = fmul double %0, %mul97
  %25 = tail call double @llvm.fmuladd.f64(double %neg54, double %add52, double -1.000000e+00)
  %26 = tail call double @llvm.fmuladd.f64(double %mul55, double %16, double %25)
  %27 = tail call double @llvm.fmuladd.f64(double %0, double %S, double 1.000000e+00)
  %28 = tail call double @llvm.fmuladd.f64(double %0, double %T, double 1.000000e+00)
  %mul119 = fmul double %28, %call37
  %29 = tail call double @llvm.fmuladd.f64(double %call40, double %27, double %mul119)
  %30 = tail call double @llvm.fmuladd.f64(double %0, double %sub, double 1.000000e+00)
  %31 = fneg double %call40
  %neg125 = fmul double %call34, %31
  %32 = tail call double @llvm.fmuladd.f64(double %neg125, double %30, double %29)
  %33 = tail call double @llvm.fmuladd.f64(double %0, double %sub65, double 1.000000e+00)
  %34 = fneg double %call37
  %neg131 = fmul double %call34, %34
  %35 = tail call double @llvm.fmuladd.f64(double %neg131, double %33, double %32)
  %36 = fneg double %35
  %neg133 = fmul double %mul74, %36
  %37 = tail call double @llvm.fmuladd.f64(double %20, double %26, double %neg133)
  %38 = tail call double @llvm.fmuladd.f64(double %mul99, double %37, double %24)
  %mul136 = fmul double %0, 4.000000e+00
  %mul138 = fmul double %0, %mul136
  %mul140 = fmul double %0, %mul138
  %mul141 = fmul double %mul140, %call37
  %mul142 = fmul double %mul141, %call40
  %div143 = fdiv double %38, %mul142
  br label %return

return:                                           ; preds = %entry, %if.end31, %if.then3
  %retval.0 = phi double [ %mul30, %if.then3 ], [ %div143, %if.end31 ], [ 0.000000e+00, %entry ]
  ret double %retval.0
}